target datalayout = "e-m:e-p270:32:32-p271:32:32-p272:64:64-i64:64-i128:128-f80:128-n8:16:32:64-S128"
target triple = "x86_64-pc-linux-gnu"

@H5_libinit_g = external global i8, align 1
@H5_libterm_g = external global i8, align 1
@.str = private unnamed_addr constant [103 x i8] c"generated/home/dtcxzyw/WorkSpace/Projects/compilers/llvm-opt-benchmark/bench/hdf5/hdf5/src/H5Ddeprec.c\00", align 1
@H5E_FUNC_g = external global i64, align 8
@H5E_CANTINIT_g = external global i64, align 8
@.str.1 = private unnamed_addr constant [30 x i8] c"library initialization failed\00", align 1
@H5E_CANTSET_g = external global i64, align 8
@.str.2 = private unnamed_addr constant [22 x i8] c"can't set API context\00", align 1
@H5E_ARGS_g = external global i64, align 8
@H5E_BADVALUE_g = external global i64, align 8
@H5E_BADTYPE_g = external global i64, align 8
@H5P_LST_DATASET_XFER_ID_g = external global i64, align 8
@__func__.H5Dvlen_reclaim = private unnamed_addr constant [16 x i8] c"H5Dvlen_reclaim\00", align 1
@.str.22 = private unnamed_addr constant [22 x i8] c"'buf' pointer is NULL\00", align 1
@.str.23 = private unnamed_addr constant [17 x i8] c"invalid datatype\00", align 1
@.str.24 = private unnamed_addr constant [18 x i8] c"invalid dataspace\00", align 1
@.str.25 = private unnamed_addr constant [35 x i8] c"dataspace does not have extent set\00", align 1
@H5P_CLS_DATASET_XFER_ID_g = external global i64, align 8
@.str.26 = private unnamed_addr constant [15 x i8] c"not xfer parms\00", align 1

; Function Attrs: nounwind uwtable
define i32 @H5Dvlen_reclaim(i64 noundef %0, i64 noundef %1, i64 noundef %2, ptr noundef %3) #0 {
  %5 = alloca i64, align 8
  %6 = alloca i64, align 8
  %7 = alloca i64, align 8
  %8 = alloca ptr, align 8
  %9 = alloca ptr, align 8
  %10 = alloca ptr, align 8
  %11 = alloca i32, align 4
  %12 = alloca i8, align 1
  %13 = alloca i8, align 1
  store i64 %0, ptr %5, align 8
  store i64 %1, ptr %6, align 8
  store i64 %2, ptr %7, align 8
  store ptr %3, ptr %8, align 8
  store i8 0, ptr %12, align 1
  store i8 0, ptr %13, align 1
  %14 = load i8, ptr @H5_libinit_g, align 1
  %15 = trunc i8 %14 to i1
  br i1 %15, label %20, label %16

16:                                               ; preds = %4
  %17 = load i8, ptr @H5_libterm_g, align 1
  %18 = trunc i8 %17 to i1
  %19 = xor i1 %18, true
  br label %20

20:                                               ; preds = %16, %4
  %21 = phi i1 [ false, %4 ], [ %19, %16 ]
  %22 = xor i1 %21, true
  %23 = xor i1 %22, true
  %24 = zext i1 %23 to i32
  %25 = sext i32 %24 to i64
  %26 = icmp ne i64 %25, 0
  br i1 %26, label %27, label %51

27:                                               ; preds = %20
  %28 = call i32 @H5_init_library()
  %29 = icmp slt i32 %28, 0
  %30 = xor i1 %29, true
  %31 = xor i1 %30, true
  %32 = zext i1 %31 to i32
  %33 = sext i32 %32 to i64
  %34 = icmp ne i64 %33, 0
  br i1 %34, label %35, label %50

35:                                               ; preds = %27
  br label %36

36:                                               ; preds = %35
  br label %37

37:                                               ; preds = %36
  br label %38

38:                                               ; preds = %37
  %39 = load i64, ptr @H5E_FUNC_g, align 8
  %40 = load i64, ptr @H5E_CANTINIT_g, align 8
  %41 = call i32 (ptr, ptr, i32, i64, i64, ptr, ...) @H5E_printf_stack(ptr noundef @.str, ptr noundef @__func__.H5Dvlen_reclaim, i32 noundef 310, i64 noundef %39, i64 noundef %40, ptr noundef @.str.1)
  br label %42

42:                                               ; preds = %38
  store i8 1, ptr %13, align 1
  %43 = load i8, ptr %13, align 1
  %44 = trunc i8 %43 to i1
  %45 = zext i1 %44 to i8
  store i8 %45, ptr %13, align 1
  br label %46

46:                                               ; preds = %42
  br label %47

47:                                               ; preds = %46
  store i32 -1, ptr %11, align 4
  br label %182

48:                                               ; No predecessors!
  br label %49

49:                                               ; preds = %48
  br label %50

50:                                               ; preds = %49, %27
  br label %51

51:                                               ; preds = %50, %20
  %52 = call i32 @H5CX_push()
  %53 = icmp slt i32 %52, 0
  %54 = xor i1 %53, true
  %55 = xor i1 %54, true
  %56 = zext i1 %55 to i32
  %57 = sext i32 %56 to i64
  %58 = icmp ne i64 %57, 0
  br i1 %58, label %59, label %74

59:                                               ; preds = %51
  br label %60

60:                                               ; preds = %59
  br label %61

61:                                               ; preds = %60
  br label %62

62:                                               ; preds = %61
  %63 = load i64, ptr @H5E_FUNC_g, align 8
  %64 = load i64, ptr @H5E_CANTSET_g, align 8
  %65 = call i32 (ptr, ptr, i32, i64, i64, ptr, ...) @H5E_printf_stack(ptr noundef @.str, ptr noundef @__func__.H5Dvlen_reclaim, i32 noundef 310, i64 noundef %63, i64 noundef %64, ptr noundef @.str.2)
  br label %66

66:                                               ; preds = %62
  store i8 1, ptr %13, align 1
  %67 = load i8, ptr %13, align 1
  %68 = trunc i8 %67 to i1
  %69 = zext i1 %68 to i8
  store i8 %69, ptr %13, align 1
  br label %70

70:                                               ; preds = %66
  br label %71

71:                                               ; preds = %70
  store i32 -1, ptr %11, align 4
  br label %182

72:                                               ; No predecessors!
  br label %73

73:                                               ; preds = %72
  br label %75

74:                                               ; preds = %51
  store i8 1, ptr %12, align 1
  br label %75

75:                                               ; preds = %74, %73
  %76 = call i32 @H5E_clear_stack()
  %77 = load ptr, ptr %8, align 8
  %78 = icmp eq ptr %77, null
  br i1 %78, label %79, label %94

79:                                               ; preds = %75
  br label %80

80:                                               ; preds = %79
  br label %81

81:                                               ; preds = %80
  br label %82

82:                                               ; preds = %81
  %83 = load i64, ptr @H5E_ARGS_g, align 8
  %84 = load i64, ptr @H5E_BADVALUE_g, align 8
  %85 = call i32 (ptr, ptr, i32, i64, i64, ptr, ...) @H5E_printf_stack(ptr noundef @.str, ptr noundef @__func__.H5Dvlen_reclaim, i32 noundef 314, i64 noundef %83, i64 noundef %84, ptr noundef @.str.22)
  br label %86

86:                                               ; preds = %82
  store i8 1, ptr %13, align 1
  %87 = load i8, ptr %13, align 1
  %88 = trunc i8 %87 to i1
  %89 = zext i1 %88 to i8
  store i8 %89, ptr %13, align 1
  br label %90

90:                                               ; preds = %86
  br label %91

91:                                               ; preds = %90
  store i32 -1, ptr %11, align 4
  br label %182

92:                                               ; No predecessors!
  br label %93

93:                                               ; preds = %92
  br label %94

94:                                               ; preds = %93, %75
  %95 = load i64, ptr %5, align 8
  %96 = call ptr @H5I_object_verify(i64 noundef %95, i32 noundef 3)
  store ptr %96, ptr %9, align 8
  %97 = icmp eq ptr null, %96
  br i1 %97, label %98, label %113

98:                                               ; preds = %94
  br label %99

99:                                               ; preds = %98
  br label %100

100:                                              ; preds = %99
  br label %101

101:                                              ; preds = %100
  %102 = load i64, ptr @H5E_ARGS_g, align 8
  %103 = load i64, ptr @H5E_BADTYPE_g, align 8
  %104 = call i32 (ptr, ptr, i32, i64, i64, ptr, ...) @H5E_printf_stack(ptr noundef @.str, ptr noundef @__func__.H5Dvlen_reclaim, i32 noundef 316, i64 noundef %102, i64 noundef %103, ptr noundef @.str.23)
  br label %105

105:                                              ; preds = %101
  store i8 1, ptr %13, align 1
  %106 = load i8, ptr %13, align 1
  %107 = trunc i8 %106 to i1
  %108 = zext i1 %107 to i8
  store i8 %108, ptr %13, align 1
  br label %109

109:                                              ; preds = %105
  br label %110

110:                                              ; preds = %109
  store i32 -1, ptr %11, align 4
  br label %182

111:                                              ; No predecessors!
  br label %112

112:                                              ; preds = %111
  br label %113

113:                                              ; preds = %112, %94
  %114 = load i64, ptr %6, align 8
  %115 = call ptr @H5I_object_verify(i64 noundef %114, i32 noundef 4)
  store ptr %115, ptr %10, align 8
  %116 = icmp eq ptr null, %115
  br i1 %116, label %117, label %132

117:                                              ; preds = %113
  br label %118

118:                                              ; preds = %117
  br label %119

119:                                              ; preds = %118
  br label %120

120:                                              ; preds = %119
  %121 = load i64, ptr @H5E_ARGS_g, align 8
  %122 = load i64, ptr @H5E_BADTYPE_g, align 8
  %123 = call i32 (ptr, ptr, i32, i64, i64, ptr, ...) @H5E_printf_stack(ptr noundef @.str, ptr noundef @__func__.H5Dvlen_reclaim, i32 noundef 318, i64 noundef %121, i64 noundef %122, ptr noundef @.str.24)
  br label %124

124:                                              ; preds = %120
  store i8 1, ptr %13, align 1
  %125 = load i8, ptr %13, align 1
  %126 = trunc i8 %125 to i1
  %127 = zext i1 %126 to i8
  store i8 %127, ptr %13, align 1
  br label %128

128:                                              ; preds = %124
  br label %129

129:                                              ; preds = %128
  store i32 -1, ptr %11, align 4
  br label %182

130:                                              ; No predecessors!
  br label %131

131:                                              ; preds = %130
  br label %132

132:                                              ; preds = %131, %113
  %133 = load ptr, ptr %10, align 8
  %134 = call zeroext i1 @H5S_has_extent(ptr noundef %133)
  br i1 %134, label %150, label %135

135:                                              ; preds = %132
  br label %136

136:                                              ; preds = %135
  br label %137

137:                                              ; preds = %136
  br label %138

138:                                              ; preds = %137
  %139 = load i64, ptr @H5E_ARGS_g, align 8
  %140 = load i64, ptr @H5E_BADVALUE_g, align 8
  %141 = call i32 (ptr, ptr, i32, i64, i64, ptr, ...) @H5E_printf_stack(ptr noundef @.str, ptr noundef @__func__.H5Dvlen_reclaim, i32 noundef 320, i64 noundef %139, i64 noundef %140, ptr noundef @.str.25)
  br label %142

142:                                              ; preds = %138
  store i8 1, ptr %13, align 1
  %143 = load i8, ptr %13, align 1
  %144 = trunc i8 %143 to i1
  %145 = zext i1 %144 to i8
  store i8 %145, ptr %13, align 1
  br label %146

146:                                              ; preds = %142
  br label %147

147:                                              ; preds = %146
  store i32 -1, ptr %11, align 4
  br label %182

148:                                              ; No predecessors!
  br label %149

149:                                              ; preds = %148
  br label %150

150:                                              ; preds = %149, %132
  %151 = load i64, ptr %7, align 8
  %152 = icmp eq i64 0, %151
  br i1 %152, label %153, label %155

153:                                              ; preds = %150
  %154 = load i64, ptr @H5P_LST_DATASET_XFER_ID_g, align 8
  store i64 %154, ptr %7, align 8
  br label %176

155:                                              ; preds = %150
  %156 = load i64, ptr %7, align 8
  %157 = load i64, ptr @H5P_CLS_DATASET_XFER_ID_g, align 8
  %158 = call i32 @H5P_isa_class(i64 noundef %156, i64 noundef %157)
  %159 = icmp ne i32 1, %158
  br i1 %159, label %160, label %175

160:                                              ; preds = %155
  br label %161

161:                                              ; preds = %160
  br label %162

162:                                              ; preds = %161
  br label %163

163:                                              ; preds = %162
  %164 = load i64, ptr @H5E_ARGS_g, align 8
  %165 = load i64, ptr @H5E_BADTYPE_g, align 8
  %166 = call i32 (ptr, ptr, i32, i64, i64, ptr, ...) @H5E_printf_stack(ptr noundef @.str, ptr noundef @__func__.H5Dvlen_reclaim, i32 noundef 326, i64 noundef %164, i64 noundef %165, ptr noundef @.str.26)
  br label %167

167:                                              ; preds = %163
  store i8 1, ptr %13, align 1
  %168 = load i8, ptr %13, align 1
  %169 = trunc i8 %168 to i1
  %170 = zext i1 %169 to i8
  store i8 %170, ptr %13, align 1
  br label %171

171:                                              ; preds = %167
  br label %172

172:                                              ; preds = %171
  store i32 -1, ptr %11, align 4
  br label %182

173:                                              ; No predecessors!
  br label %174

174:                                              ; preds = %173
  br label %175

175:                                              ; preds = %174, %155
  br label %176

176:                                              ; preds = %175, %153
  %177 = load i64, ptr %7, align 8
  call void @H5CX_set_dxpl(i64 noundef %177)
  %178 = load ptr, ptr %9, align 8
  %179 = load ptr, ptr %10, align 8
  %180 = load ptr, ptr %8, align 8
  %181 = call i32 @H5T_reclaim(ptr noundef %178, ptr noundef %179, ptr noundef %180)
  store i32 %181, ptr %11, align 4
  br label %182

182:                                              ; preds = %176, %172, %147, %129, %110, %91, %71, %47
  %183 = load i8, ptr %12, align 1
  %184 = trunc i8 %183 to i1
  %185 = xor i1 %184, true
  %186 = xor i1 %185, true
  %187 = zext i1 %186 to i32
  %188 = sext i32 %187 to i64
  %189 = icmp ne i64 %188, 0
  br i1 %189, label %190, label %192

190:                                              ; preds = %182
  %191 = call i32 @H5CX_pop(i1 noundef zeroext true)
  store i8 0, ptr %12, align 1
  br label %192

192:                                              ; preds = %190, %182
  %193 = load i8, ptr %13, align 1
  %194 = trunc i8 %193 to i1
  %195 = xor i1 %194, true
  %196 = xor i1 %195, true
  %197 = zext i1 %196 to i32
  %198 = sext i32 %197 to i64
  %199 = icmp ne i64 %198, 0
  br i1 %199, label %200, label %202

200:                                              ; preds = %192
  %201 = call i32 @H5E_dump_api_stack()
  br label %202

202:                                              ; preds = %200, %192
  %203 = load i32, ptr %11, align 4
  ret i32 %203
}