; Function Attrs: nounwind uwtable
define i32 @H5Dvlen_reclaim(i64 noundef %0, i64 noundef %1, i64 noundef %2, ptr noundef %3) local_unnamed_addr #0 {
  %5 = load i8, ptr @H5_libinit_g, align 1
  %6 = trunc i8 %5 to i1
  %7 = load i8, ptr @H5_libterm_g, align 1
  %8 = trunc i8 %7 to i1
  %9 = select i1 %6, i1 true, i1 %8
  br i1 %9, label %17, label %10

10:                                               ; preds = %4
  %11 = tail call i32 @H5_init_library() #2
  %12 = icmp slt i32 %11, 0
  br i1 %12, label %13, label %17

13:                                               ; preds = %10
  %14 = load i64, ptr @H5E_FUNC_g, align 8
  %15 = load i64, ptr @H5E_CANTINIT_g, align 8
  %16 = tail call i32 (ptr, ptr, i32, i64, i64, ptr, ...) @H5E_printf_stack(ptr noundef nonnull @.str, ptr noundef nonnull @__func__.H5Dvlen_reclaim, i32 noundef 310, i64 noundef %14, i64 noundef %15, ptr noundef nonnull @.str.1) #2
  br label %.thread34

17:                                               ; preds = %10, %4
  %18 = tail call i32 @H5CX_push() #2
  %19 = icmp slt i32 %18, 0
  br i1 %19, label %20, label %24

20:                                               ; preds = %17
  %21 = load i64, ptr @H5E_FUNC_g, align 8
  %22 = load i64, ptr @H5E_CANTSET_g, align 8
  %23 = tail call i32 (ptr, ptr, i32, i64, i64, ptr, ...) @H5E_printf_stack(ptr noundef nonnull @.str, ptr noundef nonnull @__func__.H5Dvlen_reclaim, i32 noundef 310, i64 noundef %21, i64 noundef %22, ptr noundef nonnull @.str.2) #2
  br label %.thread34

24:                                               ; preds = %17
  %25 = tail call i32 @H5E_clear_stack() #2
  %26 = icmp eq ptr %3, null
  br i1 %26, label %27, label %31

27:                                               ; preds = %24
  %28 = load i64, ptr @H5E_ARGS_g, align 8
  %29 = load i64, ptr @H5E_BADVALUE_g, align 8
  %30 = tail call i32 (ptr, ptr, i32, i64, i64, ptr, ...) @H5E_printf_stack(ptr noundef nonnull @.str, ptr noundef nonnull @__func__.H5Dvlen_reclaim, i32 noundef 314, i64 noundef %28, i64 noundef %29, ptr noundef nonnull @.str.22) #2
  br label %.thread40

31:                                               ; preds = %24
  %32 = tail call ptr @H5I_object_verify(i64 noundef %0, i32 noundef 3) #2
  %33 = icmp eq ptr %32, null
  br i1 %33, label %34, label %38

34:                                               ; preds = %31
  %35 = load i64, ptr @H5E_ARGS_g, align 8
  %36 = load i64, ptr @H5E_BADTYPE_g, align 8
  %37 = tail call i32 (ptr, ptr, i32, i64, i64, ptr, ...) @H5E_printf_stack(ptr noundef nonnull @.str, ptr noundef nonnull @__func__.H5Dvlen_reclaim, i32 noundef 316, i64 noundef %35, i64 noundef %36, ptr noundef nonnull @.str.23) #2
  br label %.thread40

38:                                               ; preds = %31
  %39 = tail call ptr @H5I_object_verify(i64 noundef %1, i32 noundef 4) #2
  %40 = icmp eq ptr %39, null
  br i1 %40, label %41, label %45

41:                                               ; preds = %38
  %42 = load i64, ptr @H5E_ARGS_g, align 8
  %43 = load i64, ptr @H5E_BADTYPE_g, align 8
  %44 = tail call i32 (ptr, ptr, i32, i64, i64, ptr, ...) @H5E_printf_stack(ptr noundef nonnull @.str, ptr noundef nonnull @__func__.H5Dvlen_reclaim, i32 noundef 318, i64 noundef %42, i64 noundef %43, ptr noundef nonnull @.str.24) #2
  br label %.thread40

45:                                               ; preds = %38
  %46 = tail call zeroext i1 @H5S_has_extent(ptr noundef nonnull %39) #2
  br i1 %46, label %51, label %47

47:                                               ; preds = %45
  %48 = load i64, ptr @H5E_ARGS_g, align 8
  %49 = load i64, ptr @H5E_BADVALUE_g, align 8
  %50 = tail call i32 (ptr, ptr, i32, i64, i64, ptr, ...) @H5E_printf_stack(ptr noundef nonnull @.str, ptr noundef nonnull @__func__.H5Dvlen_reclaim, i32 noundef 320, i64 noundef %48, i64 noundef %49, ptr noundef nonnull @.str.25) #2
  br label %.thread40

51:                                               ; preds = %45
  %52 = icmp eq i64 %2, 0
  br i1 %52, label %53, label %55

53:                                               ; preds = %51
  %54 = load i64, ptr @H5P_LST_DATASET_XFER_ID_g, align 8
  br label %63

55:                                               ; preds = %51
  %56 = load i64, ptr @H5P_CLS_DATASET_XFER_ID_g, align 8
  %57 = tail call i32 @H5P_isa_class(i64 noundef %2, i64 noundef %56) #2
  %.not = icmp eq i32 %57, 1
  br i1 %.not, label %63, label %58

58:                                               ; preds = %55
  %59 = load i64, ptr @H5E_ARGS_g, align 8
  %60 = load i64, ptr @H5E_BADTYPE_g, align 8
  %61 = tail call i32 (ptr, ptr, i32, i64, i64, ptr, ...) @H5E_printf_stack(ptr noundef nonnull @.str, ptr noundef nonnull @__func__.H5Dvlen_reclaim, i32 noundef 326, i64 noundef %59, i64 noundef %60, ptr noundef nonnull @.str.26) #2
  br label %.thread40

.thread40:                                        ; preds = %47, %58, %41, %34, %27
  %62 = tail call i32 @H5CX_pop(i1 noundef zeroext true) #2
  br label %.thread34

63:                                               ; preds = %53, %55
  %.021 = phi i64 [ %54, %53 ], [ %2, %55 ]
  tail call void @H5CX_set_dxpl(i64 noundef %.021) #2
  %64 = tail call i32 @H5T_reclaim(ptr noundef nonnull %32, ptr noundef nonnull %39, ptr noundef nonnull %3) #2
  %65 = tail call i32 @H5CX_pop(i1 noundef zeroext true) #2
  br label %67

.thread34:                                        ; preds = %20, %13, %.thread40
  %66 = tail call i32 @H5E_dump_api_stack() #2
  br label %67

67:                                               ; preds = %63, %.thread34
  %.0202937 = phi i32 [ -1, %.thread34 ], [ %64, %63 ]
  ret i32 %.0202937
}